target datalayout = "e-m:e-p270:32:32-p271:32:32-p272:64:64-i64:64-i128:128-f80:128-n8:16:32:64-S128"
target triple = "x86_64-pc-linux-gnu"

%struct.SDL_VideoDevice = type { ptr, ptr, ptr, ptr, ptr, ptr, ptr, ptr, ptr, ptr, ptr, ptr, ptr, ptr, ptr, ptr, ptr, ptr, ptr, ptr, ptr, ptr, ptr, ptr, ptr, ptr, ptr, ptr, ptr, ptr, ptr, ptr, ptr, ptr, ptr, ptr, ptr, ptr, ptr, ptr, ptr, ptr, ptr, ptr, ptr, ptr, ptr, ptr, ptr, ptr, ptr, ptr, ptr, ptr, ptr, ptr, ptr, ptr, ptr, ptr, ptr, ptr, ptr, ptr, ptr, ptr, ptr, ptr, ptr, ptr, ptr, ptr, ptr, ptr, ptr, ptr, ptr, ptr, ptr, ptr, ptr, ptr, ptr, ptr, ptr, ptr, ptr, ptr, ptr, ptr, ptr, ptr, ptr, ptr, ptr, ptr, ptr, i64, i8, i8, i8, ptr, i32, ptr, %struct.SDL_Rect, ptr, ptr, i32, ptr, ptr, ptr, ptr, i64, ptr, i8, i32, i32, %struct.anon, ptr, ptr, ptr, ptr, ptr, ptr, %struct.SDL_AtomicInt, %struct.SDL_AtomicInt, i8, %struct.anon.0, ptr, ptr, ptr, ptr, ptr }
%struct.SDL_Rect = type { i32, i32, i32, i32 }
%struct.anon = type { i32, i32, i32, i32, i32, i32, i32, i32, i32, i32, i32, i32, i32, i32, i32, i32, i32, i32, i32, i32, i32, i32, i32, i32, i32, i32, i32, i32, i32, [256 x i8], ptr }
%struct.SDL_AtomicInt = type { i32 }
%struct.anon.0 = type { ptr, ptr, i32, [256 x i8], ptr }
%struct.VkExtensionProperties = type { [256 x i8], i32 }

@.str.7 = private unnamed_addr constant [24 x i8] c"VK_EXT_headless_surface\00", align 1
@OFFSCREEN_Vulkan_GetInstanceExtensions.returnExtensions = internal constant [2 x ptr] [ptr @.str.6, ptr @.str.7], align 16

; Function Attrs: nounwind uwtable
define hidden ptr @OFFSCREEN_Vulkan_GetInstanceExtensions(ptr noundef %0, ptr noundef %1) #0 {
  %3 = alloca ptr, align 8
  %4 = alloca ptr, align 8
  %5 = alloca ptr, align 8
  %6 = alloca i32, align 4
  %7 = alloca i8, align 1
  %8 = alloca i32, align 4
  store ptr %0, ptr %3, align 8
  store ptr %1, ptr %4, align 8
  call void @llvm.lifetime.start.p0(i64 8, ptr %5) #4
  store ptr null, ptr %5, align 8
  call void @llvm.lifetime.start.p0(i64 4, ptr %6) #4
  store i32 0, ptr %6, align 4
  call void @llvm.lifetime.start.p0(i64 1, ptr %7) #4
  store i8 0, ptr %7, align 1
  call void @llvm.lifetime.start.p0(i64 4, ptr %8) #4
  %9 = load ptr, ptr %4, align 8
  %10 = icmp ne ptr %9, null
  br i1 %10, label %11, label %53

11:                                               ; preds = %2
  %12 = load ptr, ptr %3, align 8
  %13 = getelementptr inbounds nuw %struct.SDL_VideoDevice, ptr %12, i32 0, i32 127
  %14 = getelementptr inbounds nuw %struct.anon.0, ptr %13, i32 0, i32 1
  %15 = load ptr, ptr %14, align 8
  %16 = icmp ne ptr %15, null
  br i1 %16, label %17, label %43

17:                                               ; preds = %11
  %18 = load ptr, ptr %3, align 8
  %19 = getelementptr inbounds nuw %struct.SDL_VideoDevice, ptr %18, i32 0, i32 127
  %20 = getelementptr inbounds nuw %struct.anon.0, ptr %19, i32 0, i32 1
  %21 = load ptr, ptr %20, align 8
  %22 = call ptr @SDL_Vulkan_CreateInstanceExtensionsList(ptr noundef %21, ptr noundef %6)
  store ptr %22, ptr %5, align 8
  store i32 0, ptr %8, align 4
  br label %23

23:                                               ; preds = %38, %17
  %24 = load i32, ptr %8, align 4
  %25 = load i32, ptr %6, align 4
  %26 = icmp ult i32 %24, %25
  br i1 %26, label %27, label %41

27:                                               ; preds = %23
  %28 = load ptr, ptr %5, align 8
  %29 = load i32, ptr %8, align 4
  %30 = zext i32 %29 to i64
  %31 = getelementptr inbounds nuw %struct.VkExtensionProperties, ptr %28, i64 %30
  %32 = getelementptr inbounds nuw %struct.VkExtensionProperties, ptr %31, i32 0, i32 0
  %33 = getelementptr inbounds [256 x i8], ptr %32, i64 0, i64 0
  %34 = call i32 @SDL_strcmp_REAL(ptr noundef @.str.7, ptr noundef %33)
  %35 = icmp eq i32 %34, 0
  br i1 %35, label %36, label %37

36:                                               ; preds = %27
  store i8 1, ptr %7, align 1
  br label %37

37:                                               ; preds = %36, %27
  br label %38

38:                                               ; preds = %37
  %39 = load i32, ptr %8, align 4
  %40 = add i32 %39, 1
  store i32 %40, ptr %8, align 4
  br label %23, !llvm.loop !8

41:                                               ; preds = %23
  %42 = load ptr, ptr %5, align 8
  call void @SDL_free_REAL(ptr noundef %42)
  br label %43

43:                                               ; preds = %41, %11
  %44 = load i8, ptr %7, align 1, !range !6, !noundef !7
  %45 = trunc i8 %44 to i1
  %46 = zext i1 %45 to i32
  %47 = icmp eq i32 %46, 1
  br i1 %47, label %48, label %50

48:                                               ; preds = %43
  %49 = load ptr, ptr %4, align 8
  store i32 2, ptr %49, align 4
  br label %52

50:                                               ; preds = %43
  %51 = load ptr, ptr %4, align 8
  store i32 1, ptr %51, align 4
  br label %52

52:                                               ; preds = %50, %48
  br label %53

53:                                               ; preds = %52, %2
  call void @llvm.lifetime.end.p0(i64 4, ptr %8) #4
  call void @llvm.lifetime.end.p0(i64 1, ptr %7) #4
  call void @llvm.lifetime.end.p0(i64 4, ptr %6) #4
  call void @llvm.lifetime.end.p0(i64 8, ptr %5) #4
  ret ptr @OFFSCREEN_Vulkan_GetInstanceExtensions.returnExtensions
}