; Function Attrs: nounwind uwtable
define hidden noundef nonnull ptr @OFFSCREEN_Vulkan_GetInstanceExtensions(ptr noundef readonly captures(none) %0, ptr noundef writeonly captures(address_is_null) %1) local_unnamed_addr #0 {
  %3 = alloca i32, align 4
  call void @llvm.lifetime.start.p0(i64 4, ptr nonnull %3) #4
  store i32 0, ptr %3, align 4
  %.not = icmp eq ptr %1, null
  br i1 %.not, label %16, label %4

4:                                                ; preds = %2
  %5 = getelementptr inbounds nuw i8, ptr %0, i64 1376
  %6 = load ptr, ptr %5, align 8
  %.not13 = icmp eq ptr %6, null
  br i1 %.not13, label %.critedge, label %7

7:                                                ; preds = %4
  %8 = call ptr @SDL_Vulkan_CreateInstanceExtensionsList(ptr noundef nonnull %6, ptr noundef nonnull %3) #4
  %9 = load i32, ptr %3, align 4
  %.not16 = icmp eq i32 %9, 0
  br i1 %.not16, label %.critedge.critedge, label %.lr.ph

.lr.ph:                                           ; preds = %7, %.lr.ph
  %indvars.iv = phi i64 [ %indvars.iv.next, %.lr.ph ], [ 0, %7 ]
  %.114 = phi i1 [ %spec.select, %.lr.ph ], [ false, %7 ]
  %10 = getelementptr inbounds nuw %struct.VkExtensionProperties, ptr %8, i64 %indvars.iv
  %11 = call i32 @SDL_strcmp_REAL(ptr noundef nonnull @.str.7, ptr noundef %10) #4
  %12 = icmp eq i32 %11, 0
  %spec.select = select i1 %12, i1 true, i1 %.114
  %indvars.iv.next = add nuw nsw i64 %indvars.iv, 1
  %13 = load i32, ptr %3, align 4
  %14 = zext i32 %13 to i64
  %15 = icmp samesign ult i64 %indvars.iv.next, %14
  br i1 %15, label %.lr.ph, label %._crit_edge, !llvm.loop !5

._crit_edge:                                      ; preds = %.lr.ph
  call void @SDL_free_REAL(ptr noundef %8) #4
  br i1 %spec.select, label %.sink.split, label %.critedge

.critedge.critedge:                               ; preds = %7
  call void @SDL_free_REAL(ptr noundef %8) #4
  br label %.critedge

.critedge:                                        ; preds = %.critedge.critedge, %4, %._crit_edge
  br label %.sink.split

.sink.split:                                      ; preds = %._crit_edge, %.critedge
  %.sink = phi i32 [ 1, %.critedge ], [ 2, %._crit_edge ]
  store i32 %.sink, ptr %1, align 4
  br label %16

16:                                               ; preds = %.sink.split, %2
  call void @llvm.lifetime.end.p0(i64 4, ptr nonnull %3) #4
  ret ptr @OFFSCREEN_Vulkan_GetInstanceExtensions.returnExtensions
}